target datalayout = "e-m:e-p270:32:32-p271:32:32-p272:64:64-i64:64-i128:128-f80:128-n8:16:32:64-S128"
target triple = "x86_64-pc-linux-gnu"

%"class.VrmlTranslator::Buffer" = type <{ ptr, ptr, i32, i32, i32, i32, i32, [4 x i8], ptr, i8, [7 x i8] }>

; Function Attrs: noreturn nounwind uwtable
define linkonce_odr hidden void @__clang_call_terminate(ptr noundef %0) #9 comdat {
  %2 = call ptr @__cxa_begin_catch(ptr %0) #12
  call void @_ZSt9terminatev() #17
  unreachable
}

; Function Attrs: mustprogress nounwind uwtable
define void @_ZN14VrmlTranslator6BufferD2Ev(ptr noundef nonnull align 8 dereferenceable(49) %0) unnamed_addr #0 align 2 personality ptr @__gxx_personality_v0 {
  %2 = alloca ptr, align 8
  store ptr %0, ptr %2, align 8
  %3 = load ptr, ptr %2, align 8
  store ptr getelementptr inbounds ({ [10 x ptr] }, ptr @_ZTVN14VrmlTranslator6BufferE, i32 0, i32 0, i32 2), ptr %3, align 8
  %4 = load ptr, ptr %3, align 8
  %5 = getelementptr inbounds ptr, ptr %4, i64 2
  %6 = load ptr, ptr %5, align 8
  invoke void %6(ptr noundef nonnull align 8 dereferenceable(49) %3)
          to label %7 unwind label %19

7:                                                ; preds = %1
  %8 = getelementptr inbounds %"class.VrmlTranslator::Buffer", ptr %3, i32 0, i32 1
  %9 = load ptr, ptr %8, align 8
  %10 = icmp ne ptr %9, null
  br i1 %10, label %11, label %18

11:                                               ; preds = %7
  %12 = getelementptr inbounds %"class.VrmlTranslator::Buffer", ptr %3, i32 0, i32 1
  %13 = load ptr, ptr %12, align 8
  %14 = icmp eq ptr %13, null
  br i1 %14, label %16, label %15

15:                                               ; preds = %11
  call void @_ZdaPv(ptr noundef %13) #13
  br label %16

16:                                               ; preds = %15, %11
  %17 = getelementptr inbounds %"class.VrmlTranslator::Buffer", ptr %3, i32 0, i32 1
  store ptr null, ptr %17, align 8
  br label %18

18:                                               ; preds = %16, %7
  ret void

19:                                               ; preds = %1
  %20 = landingpad { ptr, i32 }
          catch ptr null
  %21 = extractvalue { ptr, i32 } %20, 0
  call void @__clang_call_terminate(ptr %21) #17
  unreachable
}