; Function Attrs: mustprogress nounwind uwtable
define void @_ZN14VrmlTranslator6BufferD2Ev(ptr nocapture noundef nonnull align 8 dereferenceable(49) %0) unnamed_addr #0 align 2 personality ptr @__gxx_personality_v0 {
  store ptr getelementptr inbounds ({ [10 x ptr] }, ptr @_ZTVN14VrmlTranslator6BufferE, i64 0, i32 0, i64 2), ptr %0, align 8
  %2 = getelementptr inbounds i8, ptr %0, i64 48
  %3 = load i8, ptr %2, align 8
  %4 = and i8 %3, 1
  %.not.i = icmp eq i8 %4, 0
  br i1 %.not.i, label %5, label %_ZN14VrmlTranslator6Buffer5CloseEv.exit

5:                                                ; preds = %1
  %6 = getelementptr inbounds i8, ptr %0, i64 40
  %7 = load ptr, ptr %6, align 8
  %.not1.i = icmp eq ptr %7, null
  br i1 %.not1.i, label %_ZN14VrmlTranslator6Buffer5CloseEv.exit, label %8

8:                                                ; preds = %5
  %9 = tail call i32 @fclose(ptr noundef nonnull %7)
  store ptr null, ptr %6, align 8
  br label %_ZN14VrmlTranslator6Buffer5CloseEv.exit

_ZN14VrmlTranslator6Buffer5CloseEv.exit:          ; preds = %8, %5, %1
  %10 = getelementptr inbounds i8, ptr %0, i64 8
  %11 = load ptr, ptr %10, align 8
  %.not = icmp eq ptr %11, null
  br i1 %.not, label %13, label %12

12:                                               ; preds = %_ZN14VrmlTranslator6Buffer5CloseEv.exit
  tail call void @_ZdaPv(ptr noundef nonnull %11) #20
  store ptr null, ptr %10, align 8
  br label %13

13:                                               ; preds = %12, %_ZN14VrmlTranslator6Buffer5CloseEv.exit
  ret void
}